
bootrom.elf：     文件格式 elf64-littleriscv


Disassembly of section .text.start:

0000000000000000 <_start>:
.section .text.start, "ax", @progbits
.globl _start
_start:
  //csrwi 0x7c1, 0 // disable chicken bits
  //csrr a0, mhartid
  li   a0, 0x1  
   0:	00100513          	li	a0,1
  slli a1, a0, 12
   4:	00c51593          	slli	a1,a0,0xc
  li   sp, 0x2000000
   8:	02000137          	lui	sp,0x2000
  add  x0, x0, x0
   c:	00000033          	add	zero,zero,zero
  add  x0, x0, x0
  10:	00000033          	add	zero,zero,zero
  add  sp, sp, a1
  14:	00b10133          	add	sp,sp,a1
  lb   a1, 0(sp)
  18:	00010583          	lb	a1,0(sp) # 2000000 <_dtb+0x1fff800>
  csrr a0, mhartid
  1c:	f1402573          	csrr	a0,mhartid
  call main
  20:	440000ef          	jal	ra,460 <main>
  csrr a0, mhartid
  24:	f1402573          	csrr	a0,mhartid
  la a1, _dtb
  28:	00000597          	auipc	a1,0x0
  2c:	7d858593          	addi	a1,a1,2008 # 800 <_dtb>
  jr s0
  30:	00040067          	jr	s0

Disassembly of section .text.hang:

0000000000000400 <_hang>:

.section .text.hang, "ax", @progbits
.globl _hang
_hang:
  csrwi 0x7c1, 0 // disable chicken bits
 400:	7c105073          	csrwi	0x7c1,0
  csrr a0, mhartid
 404:	f1402573          	csrr	a0,mhartid
  la a1, _dtb
 408:	00000597          	auipc	a1,0x0
 40c:	3f858593          	addi	a1,a1,1016 # 800 <_dtb>
  csrwi mie, 0
 410:	30405073          	csrwi	mie,0
1:
  wfi
 414:	10500073          	wfi
  j 1b
 418:	ffdff06f          	j	414 <_hang+0x14>

Disassembly of section .text:

000000000000041c <kputc>:

volatile void kputc(char c)
{
	volatile uint32_t *tx = &REG32(uart, UART_REG_TXFIFO);

	while ((int32_t)(*tx) < 0);
 41c:	54000737          	lui	a4,0x54000
 420:	00072783          	lw	a5,0(a4) # 54000000 <_dtb+0x53fff800>
 424:	fe07cee3          	bltz	a5,420 <kputc+0x4>
	*tx = c;
 428:	0005051b          	sext.w	a0,a0
 42c:	00a72023          	sw	a0,0(a4)
}
 430:	00008067          	ret

0000000000000434 <_kputs>:

volatile void _kputs(const char *s)
{
	char c;
	for (; (c = *s) != '\0'; s++)
 434:	00054683          	lbu	a3,0(a0)
 438:	02068263          	beqz	a3,45c <_kputs+0x28>
	while ((int32_t)(*tx) < 0);
 43c:	54000737          	lui	a4,0x54000
 440:	00072783          	lw	a5,0(a4) # 54000000 <_dtb+0x53fff800>
 444:	fe07cee3          	bltz	a5,440 <_kputs+0xc>
	*tx = c;
 448:	0006869b          	sext.w	a3,a3
 44c:	00d72023          	sw	a3,0(a4)
	for (; (c = *s) != '\0'; s++)
 450:	00154683          	lbu	a3,1(a0)
 454:	00150513          	addi	a0,a0,1
 458:	fe0694e3          	bnez	a3,440 <_kputs+0xc>
		kputc(c);
}
 45c:	00008067          	ret

Disassembly of section .text.startup:

0000000000000460 <main>:
	while ((int32_t)(*tx) < 0);
 460:	54000737          	lui	a4,0x54000


int main(void)
{
 464:	00000617          	auipc	a2,0x0
 468:	3ac60613          	addi	a2,a2,940 # 810 <_dtb+0x10>
	for (; (c = *s) != '\0'; s++)
 46c:	04800693          	li	a3,72
	while ((int32_t)(*tx) < 0);
 470:	00072783          	lw	a5,0(a4) # 54000000 <_dtb+0x53fff800>
 474:	fe07cee3          	bltz	a5,470 <main+0x10>
	*tx = c;
 478:	0006869b          	sext.w	a3,a3
 47c:	00d72023          	sw	a3,0(a4)
	for (; (c = *s) != '\0'; s++)
 480:	00164683          	lbu	a3,1(a2)
 484:	00160613          	addi	a2,a2,1
 488:	fe0694e3          	bnez	a3,470 <main+0x10>
 48c:	fd9ff06f          	j	464 <main+0x4>

Disassembly of section .rodata.dtb:

0000000000000800 <_dtb>:
 800:	5444                	lw	s1,44(s0)
 802:	2042                	fld	ft0,16(sp)
 804:	73656f67          	0x73656f67
 808:	6820                	ld	s0,80(s0)
 80a:	7265                	lui	tp,0xffff9
 80c:	65              	地址 0x000000000000080c 越界。


Disassembly of section .rodata.str1.8:

0000000000000810 <.rodata.str1.8>:
 810:	6548                	ld	a0,136(a0)
 812:	6c6c                	ld	a1,216(s0)
 814:	5720776f          	jal	a4,7d86 <_dtb+0x7586>
 818:	646c726f          	jal	tp,c7e5e <_dtb+0xc765e>
 81c:	0a0d                	addi	s4,s4,3
	...

Disassembly of section .riscv.attributes:

0000000000000000 <.riscv.attributes>:
  li   a0, 0x1  
   0:	1f41                	addi	t5,t5,-16
   2:	0000                	unimp
  slli a1, a0, 12
   4:	7200                	ld	s0,32(a2)
   6:	7369                	lui	t1,0xffffa
  li   sp, 0x2000000
   8:	01007663          	bgeu	zero,a6,14 <ROM_BASE+0x14>
  add  x0, x0, x0
   c:	0015                	c.nop	5
   e:	0000                	unimp
  add  x0, x0, x0
  10:	1004                	addi	s1,sp,32
  12:	7205                	lui	tp,0xfffe1
  add  sp, sp, a1
  14:	3676                	fld	fa2,376(sp)
  16:	6934                	ld	a3,80(a0)
  lb   a1, 0(sp)
  18:	7032                	0x7032
  1a:	0030                	addi	a2,sp,8
  csrr a0, mhartid
  1c:	0108                	addi	a0,sp,128
  1e:	0b0a                	slli	s6,s6,0x2

Disassembly of section .comment:

0000000000000000 <.comment>:
  li   a0, 0x1  
   0:	3a434347          	fmsub.d	ft6,ft6,ft4,ft7,rmm
  slli a1, a0, 12
   4:	2820                	fld	fs0,80(s0)
   6:	29554e47          	fmsub.s	ft8,fa0,fs5,ft5,rmm
  li   sp, 0x2000000
   a:	3120                	fld	fs0,96(a0)
  add  x0, x0, x0
   c:	2e31                	addiw	t3,t3,12
   e:	2e31                	addiw	t3,t3,12
  add  x0, x0, x0
  10:	0030                	addi	a2,sp,8

Disassembly of section .debug_line:

0000000000000000 <.debug_line>:
  li   a0, 0x1  
   0:	00b8                	addi	a4,sp,72
   2:	0000                	unimp
  slli a1, a0, 12
   4:	0005                	c.nop	1
   6:	0008                	0x8
  li   sp, 0x2000000
   8:	002a                	c.slli	zero,0xa
   a:	0000                	unimp
  add  x0, x0, x0
   c:	0101                	addi	sp,sp,0
   e:	fb01                	bnez	a4,ffffffffffffff1e <_dtb+0xfffffffffffff71e>
  add  x0, x0, x0
  10:	0d0e                	slli	s10,s10,0x3
  12:	0100                	addi	s0,sp,128
  add  sp, sp, a1
  14:	0101                	addi	sp,sp,0
  16:	0001                	nop
  lb   a1, 0(sp)
  18:	0000                	unimp
  1a:	0001                	nop
  csrr a0, mhartid
  1c:	0100                	addi	s0,sp,128
  1e:	0101                	addi	sp,sp,0
  call main
  20:	011f 0000 0000      	0x11f
  csrr a0, mhartid
  26:	0102                	c.slli64	sp
  la a1, _dtb
  28:	021f 020f 0027      	0x27020f021f
  2e:	0000                	unimp
  jr s0
  30:	2700                	fld	fs0,8(a4)
  32:	0000                	unimp
  34:	0000                	unimp
  36:	0900                	addi	s0,sp,144
  38:	0002                	c.slli64	zero
  3a:	0000                	unimp
  3c:	0000                	unimp
  3e:	0000                	unimp
  40:	1900                	addi	s0,sp,176
  42:	04090103          	lb	sp,64(s2)
  46:	0100                	addi	s0,sp,128
  48:	04090103          	lb	sp,64(s2)
  4c:	0100                	addi	s0,sp,128
  4e:	04090103          	lb	sp,64(s2)
  52:	0100                	addi	s0,sp,128
  54:	04090103          	lb	sp,64(s2)
  58:	0100                	addi	s0,sp,128
  5a:	04090103          	lb	sp,64(s2)
  5e:	0100                	addi	s0,sp,128
  60:	04090103          	lb	sp,64(s2)
  64:	0100                	addi	s0,sp,128
  66:	04090103          	lb	sp,64(s2)
  6a:	0100                	addi	s0,sp,128
  6c:	04090103          	lb	sp,64(s2)
  70:	0100                	addi	s0,sp,128
  72:	04090103          	lb	sp,64(s2)
  76:	0100                	addi	s0,sp,128
  78:	04090103          	lb	sp,64(s2)
  7c:	0100                	addi	s0,sp,128
  7e:	08090103          	lb	sp,128(s2)
  82:	0100                	addi	s0,sp,128
  84:	0409                	addi	s0,s0,2
  86:	0000                	unimp
  88:	0101                	addi	sp,sp,0
  8a:	0900                	addi	s0,sp,144
  8c:	0002                	c.slli64	zero
  8e:	0004                	0x4
  90:	0000                	unimp
  92:	0000                	unimp
  94:	0300                	addi	s0,sp,384
  96:	01030117          	auipc	sp,0x1030
  9a:	0409                	addi	s0,s0,2
  9c:	0100                	addi	s0,sp,128
  9e:	04090103          	lb	sp,64(s2)
  a2:	0100                	addi	s0,sp,128
  a4:	08090103          	lb	sp,128(s2)
  a8:	0100                	addi	s0,sp,128
  aa:	04090203          	lb	tp,64(s2)
  ae:	0100                	addi	s0,sp,128
  b0:	04090103          	lb	sp,64(s2)
  b4:	0100                	addi	s0,sp,128
  b6:	0409                	addi	s0,s0,2
  b8:	0000                	unimp
  ba:	0101                	addi	sp,sp,0
  bc:	00000203          	lb	tp,0(zero) # 0 <ROM_BASE>
  c0:	0005                	c.nop	1
  c2:	0008                	0x8
  c4:	003c                	addi	a5,sp,8
  c6:	0000                	unimp
  c8:	0101                	addi	sp,sp,0
  ca:	fb01                	bnez	a4,ffffffffffffffda <_dtb+0xfffffffffffff7da>
  cc:	0d0e                	slli	s10,s10,0x3
  ce:	0100                	addi	s0,sp,128
  d0:	0101                	addi	sp,sp,0
  d2:	0001                	nop
  d4:	0000                	unimp
  d6:	0001                	nop
  d8:	0100                	addi	s0,sp,128
  da:	0101                	addi	sp,sp,0
  dc:	031f 0000 0000      	0x31f
  e2:	0038                	addi	a4,sp,8
  e4:	0000                	unimp
  e6:	00000067          	jr	zero # 0 <ROM_BASE>
  ea:	0102                	c.slli64	sp
  ec:	021f 040f 0031      	0x31040f021f
  f2:	0000                	unimp
  f4:	3100                	fld	fs0,32(a0)
  f6:	0000                	unimp
  f8:	0000                	unimp
  fa:	0092                	slli	ra,ra,0x4
  fc:	0000                	unimp
  fe:	a301                	j	5fe <main+0x19e>
 100:	0000                	unimp
 102:	0200                	addi	s0,sp,256
 104:	0105                	addi	sp,sp,1
 106:	0900                	addi	s0,sp,144
 108:	1c02                	slli	s8,s8,0x20
 10a:	0004                	0x4
 10c:	0000                	unimp
 10e:	0000                	unimp
 110:	0300                	addi	s0,sp,384
 112:	00fe                	slli	ra,ra,0x1f
 114:	0501                	addi	a0,a0,0
 116:	0302                	c.slli64	t1
 118:	0901                	addi	s2,s2,0
 11a:	0000                	unimp
 11c:	0301                	addi	t1,t1,0
 11e:	0902                	c.slli64	s2
 120:	0000                	unimp
 122:	0501                	addi	a0,a0,0
 124:	00030613          	mv	a2,t1
 128:	0009                	c.nop	2
 12a:	0100                	addi	s0,sp,128
 12c:	1805                	addi	a6,a6,-31
 12e:	0200                	addi	s0,sp,256
 130:	0104                	addi	s1,sp,128
 132:	0306                	slli	t1,t1,0x1
 134:	0900                	addi	s0,sp,144
 136:	0004                	0x4
 138:	0501                	addi	a0,a0,0
 13a:	04020013          	addi	zero,tp,64 # fffffffffffe1040 <_dtb+0xfffffffffffe0840>
 13e:	0601                	addi	a2,a2,0
 140:	00090003          	lb	zero,0(s2)
 144:	0100                	addi	s0,sp,128
 146:	1805                	addi	a6,a6,-31
 148:	0200                	addi	s0,sp,256
 14a:	0104                	addi	s1,sp,128
 14c:	04090003          	lb	zero,64(s2)
 150:	0100                	addi	s0,sp,128
 152:	0205                	addi	tp,tp,1
 154:	0306                	slli	t1,t1,0x1
 156:	0901                	addi	s2,s2,0
 158:	0004                	0x4
 15a:	0501                	addi	a0,a0,0
 15c:	0606                	slli	a2,a2,0x1
 15e:	00090003          	lb	zero,0(s2)
 162:	0100                	addi	s0,sp,128
 164:	0105                	addi	sp,sp,1
 166:	08090103          	lb	sp,128(s2)
 16a:	0100                	addi	s0,sp,128
 16c:	0306                	slli	t1,t1,0x1
 16e:	00040903          	lb	s2,0(s0)
 172:	0501                	addi	a0,a0,0
 174:	0302                	c.slli64	t1
 176:	0901                	addi	s2,s2,0
 178:	0000                	unimp
 17a:	0301                	addi	t1,t1,0
 17c:	0901                	addi	s2,s2,0
 17e:	0000                	unimp
 180:	0501                	addi	a0,a0,0
 182:	0312                	slli	t1,t1,0x4
 184:	0900                	addi	s0,sp,144
 186:	0000                	unimp
 188:	0501                	addi	a0,a0,0
 18a:	060c                	addi	a1,sp,768
 18c:	00090003          	lb	zero,0(s2)
 190:	0100                	addi	s0,sp,128
 192:	1205                	addi	tp,tp,-31
 194:	04090003          	lb	zero,64(s2)
 198:	0100                	addi	s0,sp,128
 19a:	1305                	addi	t1,t1,-31
 19c:	04097903          	0x4097903
 1a0:	0100                	addi	s0,sp,128
 1a2:	1805                	addi	a6,a6,-31
 1a4:	0306                	slli	t1,t1,0x1
 1a6:	0900                	addi	s0,sp,144
 1a8:	0004                	0x4
 1aa:	0501                	addi	a0,a0,0
 1ac:	00030613          	mv	a2,t1
 1b0:	0009                	c.nop	2
 1b2:	0100                	addi	s0,sp,128
 1b4:	1805                	addi	a6,a6,-31
 1b6:	04090003          	lb	zero,64(s2)
 1ba:	0100                	addi	s0,sp,128
 1bc:	0205                	addi	tp,tp,1
 1be:	0306                	slli	t1,t1,0x1
 1c0:	0901                	addi	s2,s2,0
 1c2:	0004                	0x4
 1c4:	0501                	addi	a0,a0,0
 1c6:	0606                	slli	a2,a2,0x1
 1c8:	00090003          	lb	zero,0(s2)
 1cc:	0100                	addi	s0,sp,128
 1ce:	1c05                	addi	s8,s8,-31
 1d0:	0306                	slli	t1,t1,0x1
 1d2:	0906                	slli	s2,s2,0x1
 1d4:	0008                	0x8
 1d6:	0501                	addi	a0,a0,0
 1d8:	060c                	addi	a1,sp,768
 1da:	00090003          	lb	zero,0(s2)
 1de:	0100                	addi	s0,sp,128
 1e0:	1c05                	addi	s8,s8,-31
 1e2:	04090003          	lb	zero,64(s2)
 1e6:	0100                	addi	s0,sp,128
 1e8:	1205                	addi	tp,tp,-31
 1ea:	0306                	slli	t1,t1,0x1
 1ec:	0900                	addi	s0,sp,144
 1ee:	0004                	0x4
 1f0:	0501                	addi	a0,a0,0
 1f2:	0601                	addi	a2,a2,0
 1f4:	04090203          	lb	tp,64(s2)
 1f8:	0100                	addi	s0,sp,128
 1fa:	0409                	addi	s0,s0,2
 1fc:	0000                	unimp
 1fe:	0101                	addi	sp,sp,0
 200:	0105                	addi	sp,sp,1
 202:	0900                	addi	s0,sp,144
 204:	6002                	0x6002
 206:	0004                	0x4
 208:	0000                	unimp
 20a:	0000                	unimp
 20c:	0300                	addi	s0,sp,384
 20e:	018e                	slli	gp,gp,0x3
 210:	0501                	addi	a0,a0,0
 212:	73030613          	addi	a2,t1,1840 # ffffffffffffa730 <_dtb+0xffffffffffff9f30>
 216:	0009                	c.nop	2
 218:	0100                	addi	s0,sp,128
 21a:	0305                	addi	t1,t1,1
 21c:	0200                	addi	s0,sp,256
 21e:	0104                	addi	s1,sp,128
 220:	0306                	slli	t1,t1,0x1
 222:	00040913          	mv	s2,s0
 226:	0501                	addi	a0,a0,0
 228:	0005                	c.nop	1
 22a:	0402                	c.slli64	s0
 22c:	0301                	addi	t1,t1,0
 22e:	0904                	addi	s1,sp,144
 230:	0000                	unimp
 232:	0501                	addi	a0,a0,0
 234:	0002                	c.slli64	zero
 236:	0402                	c.slli64	s0
 238:	0301                	addi	t1,t1,0
 23a:	0000096f          	jal	s2,23a <ROM_BASE+0x23a>
 23e:	0001                	nop
 240:	0402                	c.slli64	s0
 242:	0301                	addi	t1,t1,0
 244:	0901                	addi	s2,s2,0
 246:	0000                	unimp
 248:	0501                	addi	a0,a0,0
 24a:	0012                	c.slli	zero,0x4
 24c:	0402                	c.slli64	s0
 24e:	0301                	addi	t1,t1,0
 250:	0900                	addi	s0,sp,144
 252:	0000                	unimp
 254:	0501                	addi	a0,a0,0
 256:	0001                	nop
 258:	0402                	c.slli64	s0
 25a:	0601                	addi	a2,a2,0
 25c:	00090603          	lb	a2,0(s2)
 260:	0100                	addi	s0,sp,128
 262:	0c05                	addi	s8,s8,1
 264:	0200                	addi	s0,sp,256
 266:	0104                	addi	s1,sp,128
 268:	08097a03          	0x8097a03
 26c:	0100                	addi	s0,sp,128
 26e:	1805                	addi	a6,a6,-31
 270:	0306                	slli	t1,t1,0x1
 272:	0979                	addi	s2,s2,30
 274:	0004                	0x4
 276:	0501                	addi	a0,a0,0
 278:	00030613          	mv	a2,t1
 27c:	0009                	c.nop	2
 27e:	0100                	addi	s0,sp,128
 280:	1805                	addi	a6,a6,-31
 282:	04090003          	lb	zero,64(s2)
 286:	0100                	addi	s0,sp,128
 288:	0205                	addi	tp,tp,1
 28a:	0306                	slli	t1,t1,0x1
 28c:	0901                	addi	s2,s2,0
 28e:	0004                	0x4
 290:	0501                	addi	a0,a0,0
 292:	0606                	slli	a2,a2,0x1
 294:	00090003          	lb	zero,0(s2)
 298:	0100                	addi	s0,sp,128
 29a:	1c05                	addi	s8,s8,-31
 29c:	0306                	slli	t1,t1,0x1
 29e:	0906                	slli	s2,s2,0x1
 2a0:	0008                	0x8
 2a2:	0501                	addi	a0,a0,0
 2a4:	060c                	addi	a1,sp,768
 2a6:	00090003          	lb	zero,0(s2)
 2aa:	0100                	addi	s0,sp,128
 2ac:	1c05                	addi	s8,s8,-31
 2ae:	04090003          	lb	zero,64(s2)
 2b2:	0100                	addi	s0,sp,128
 2b4:	1205                	addi	tp,tp,-31
 2b6:	0306                	slli	t1,t1,0x1
 2b8:	0900                	addi	s0,sp,144
 2ba:	0004                	0x4
 2bc:	0901                	addi	s2,s2,0
 2be:	0008                	0x8
 2c0:	0100                	addi	s0,sp,128
 2c2:	01              	地址 0x00000000000002c2 越界。


Disassembly of section .debug_line_str:

0000000000000000 <.debug_line_str>:
  li   a0, 0x1  
   0:	6d6f682f          	0x6d6f682f
  slli a1, a0, 12
   4:	2f65                	addiw	t5,t5,25
   6:	6f64                	ld	s1,216(a4)
  li   sp, 0x2000000
   8:	676e                	ld	a4,216(sp)
   a:	6564                	ld	s1,200(a0)
  add  x0, x0, x0
   c:	696a                	ld	s2,152(sp)
   e:	6168732f          	0x6168732f
  add  x0, x0, x0
  12:	6572                	ld	a0,280(sp)
  add  sp, sp, a1
  14:	646f632f          	0x646f632f
  lb   a1, 0(sp)
  18:	2f65                	addiw	t5,t5,25
  1a:	706e                	0x706e
  csrr a0, mhartid
  1c:	7375                	lui	t1,0xffffd
  1e:	6f6f622f          	0x6f6f622f
  call main
  22:	7274                	ld	a3,224(a2)
  csrr a0, mhartid
  24:	62006d6f          	jal	s10,6644 <_dtb+0x5e44>
  la a1, _dtb
  28:	72746f6f          	jal	t5,46f4e <_dtb+0x4674e>
  2c:	532e6d6f          	jal	s10,e655e <_dtb+0xe5d5e>
  jr s0
  30:	6d00                	ld	s0,24(a0)
  32:	6961                	lui	s2,0x18
  34:	2e6e                	fld	ft8,216(sp)
  36:	6f2f0063          	beq	t5,s2,716 <main+0x2b6>
  3a:	7470                	ld	a2,232(s0)
  3c:	7369722f          	0x7369722f
  40:	722f7663          	bgeu	t5,sp,76c <main+0x30c>
  44:	7369                	lui	t1,0xffffa
  46:	34367663          	bgeu	a2,gp,392 <ROM_BASE+0x392>
  4a:	752d                	lui	a0,0xfffeb
  4c:	6b6e                	ld	s6,216(sp)
  4e:	6f6e                	ld	t5,216(sp)
  50:	652d6e77          	0x652d6e77
  54:	666c                	ld	a1,200(a2)
  56:	636e692f          	0x636e692f
  5a:	756c                	ld	a1,232(a0)
  5c:	6564                	ld	s1,200(a0)
  5e:	63616d2f          	0x63616d2f
  62:	6968                	ld	a0,208(a0)
  64:	656e                	ld	a0,216(sp)
  66:	2f00                	fld	fs0,24(a4)
  68:	2f74706f          	j	47b5e <_dtb+0x4735e>
  6c:	6972                	ld	s2,280(sp)
  6e:	2f766373          	csrrsi	t1,0x2f7,12
  72:	6972                	ld	s2,280(sp)
  74:	36766373          	csrrsi	t1,0x367,12
  78:	2d34                	fld	fa3,88(a0)
  7a:	6e75                	lui	t3,0x1d
  7c:	776f6e6b          	0x776f6e6b
  80:	2d6e                	fld	fs10,216(sp)
  82:	6c65                	lui	s8,0x19
  84:	2f66                	fld	ft10,88(sp)
  86:	6e69                	lui	t3,0x1a
  88:	64756c63          	bltu	a0,t2,6e0 <main+0x280>
  8c:	2f65                	addiw	t5,t5,25
  8e:	00737973          	csrrci	s2,0x7,6
  92:	645f 6665 7561      	0x75616665645f
  98:	746c                	ld	a1,232(s0)
  9a:	745f 7079 7365      	0x73657079745f
  a0:	682e                	ld	a6,200(sp)
  a2:	5f00                	lw	s0,56(a4)
  a4:	69647473          	csrrci	s0,0x696,8
  a8:	746e                	ld	s0,248(sp)
  aa:	682e                	ld	a6,200(sp)
	...

Disassembly of section .debug_info:

0000000000000000 <.debug_info>:
  li   a0, 0x1  
   0:	001f 0000 0005      	0x50000001f
  slli a1, a0, 12
   6:	0801                	addi	a6,a6,0
  li   sp, 0x2000000
   8:	0000                	unimp
   a:	0000                	unimp
  add  x0, x0, x0
   c:	0001                	nop
   e:	0000                	unimp
  add  x0, x0, x0
  10:	0c00                	addi	s0,sp,528
  12:	0000                	unimp
  add  sp, sp, a1
  14:	0000                	unimp
  16:	0000                	unimp
  lb   a1, 0(sp)
  18:	0a00                	addi	s0,sp,272
  1a:	0000                	unimp
  csrr a0, mhartid
  1c:	3100                	fld	fs0,32(a0)
  1e:	0000                	unimp
  call main
  20:	0100                	addi	s0,sp,128
  22:	e880                	sd	s0,16(s1)
  csrr a0, mhartid
  24:	0001                	nop
  26:	0500                	addi	s0,sp,640
  la a1, _dtb
  28:	0100                	addi	s0,sp,128
  2a:	1208                	addi	a0,sp,288
  2c:	0000                	unimp
  2e:	0e00                	addi	s0,sp,784
  jr s0
  30:	008a                	slli	ra,ra,0x2
  32:	0000                	unimp
  34:	311d                	addiw	sp,sp,-25
  36:	0000                	unimp
  38:	0000                	unimp
  3a:	0000                	unimp
  3c:	8400                	0x8400
	...
  46:	0000                	unimp
  48:	bc00                	fsd	fs0,56(s0)
  4a:	0000                	unimp
  4c:	0100                	addi	s0,sp,128
  4e:	0601                	addi	a2,a2,0
  50:	0049                	c.nop	18
  52:	0000                	unimp
  54:	0101                	addi	sp,sp,0
  56:	4708                	lw	a0,8(a4)
  58:	0000                	unimp
  5a:	0100                	addi	s0,sp,128
  5c:	0502                	c.slli64	a0
  5e:	00fa                	slli	ra,ra,0x1e
  60:	0000                	unimp
  62:	0201                	addi	tp,tp,0
  64:	00006707          	0x6707
  68:	0200                	addi	s0,sp,256
  6a:	003d                	c.nop	15
  6c:	0000                	unimp
  6e:	4d02                	lw	s10,0(sp)
  70:	5218                	lw	a4,32(a2)
  72:	0000                	unimp
  74:	0f00                	addi	s0,sp,912
  76:	0504                	addi	s1,sp,640
  78:	6e69                	lui	t3,0x1a
  7a:	0074                	addi	a3,sp,12
  7c:	7a02                	ld	s4,32(sp)
  7e:	0000                	unimp
  80:	0200                	addi	s0,sp,256
  82:	0065194f          	fnmadd.s	fs2,fa0,ft6,ft0,rtz
  86:	0000                	unimp
  88:	0401                	addi	s0,s0,0
  8a:	00005a07          	0x5a07
  8e:	0100                	addi	s0,sp,128
  90:	0508                	addi	a0,sp,640
  92:	0110                	addi	a2,sp,128
  94:	0000                	unimp
  96:	0801                	addi	a6,a6,0
  98:	00005507          	0x5507
  9c:	0200                	addi	s0,sp,256
  9e:	0000003f 46132c03 	0x46132c030000003f
  a6:	0000                	unimp
  a8:	0200                	addi	s0,sp,256
  aa:	007c                	addi	a5,sp,12
  ac:	0000                	unimp
  ae:	59143003          	ld	zero,1425(s0)
  b2:	0000                	unimp
  b4:	1000                	addi	s0,sp,32
  b6:	0086                	slli	ra,ra,0x1
  b8:	0000                	unimp
  ba:	0b11                	addi	s6,s6,4
  bc:	0001                	nop
  be:	0100                	addi	s0,sp,128
  c0:	227c                	fld	fa5,192(a2)
  c2:	00ac                	addi	a1,sp,72
  c4:	0000                	unimp
  c6:	0000                	unimp
  c8:	5400                	lw	s0,40(s0)
  ca:	9204                	0x9204
  cc:	0000                	unimp
  ce:	0500                	addi	s0,sp,640
  d0:	000000a7          	0xa7
  d4:	8512                	mv	a0,tp
  d6:	0000                	unimp
  d8:	0100                	addi	s0,sp,128
  da:	058e                	slli	a1,a1,0x3
  dc:	0052                	c.slli	zero,0x14
  de:	0000                	unimp
  e0:	0460                	addi	s0,sp,524
  e2:	0000                	unimp
  e4:	0000                	unimp
  e6:	0000                	unimp
  e8:	0030                	addi	a2,sp,8
  ea:	0000                	unimp
  ec:	0000                	unimp
  ee:	0000                	unimp
  f0:	9c01                	subw	s0,s0,s0
  f2:	0124                	addi	s1,sp,136
  f4:	0000                	unimp
  f6:	2406                	fld	fs0,64(sp)
  f8:	0001                	nop
  fa:	6000                	ld	s0,0(s0)
  fc:	0004                	0x4
  fe:	0000                	unimp
 100:	0000                	unimp
 102:	2d00                	fld	fs0,24(a0)
 104:	0000                	unimp
 106:	9900                	0x9900
 108:	0305                	addi	t1,t1,1
 10a:	012e                	slli	sp,sp,0xb
 10c:	0000                	unimp
 10e:	000c                	0xc
 110:	0000                	unimp
 112:	00002d07          	flw	fs10,0(zero) # 0 <ROM_BASE>
 116:	0800                	addi	s0,sp,16
 118:	00000137          	lui	sp,0x0
 11c:	003c                	addi	a5,sp,8
 11e:	0000                	unimp
 120:	5206                	lw	tp,96(sp)
 122:	0001                	nop
 124:	6000                	ld	s0,0(s0)
 126:	0004                	0x4
 128:	0000                	unimp
 12a:	0000                	unimp
 12c:	6100                	ld	s0,0(a0)
 12e:	0000                	unimp
 130:	8a00                	0x8a00
 132:	015c0903          	lb	s2,21(s8) # 19015 <_dtb+0x18815>
 136:	0000                	unimp
 138:	00006107          	0x6107
 13c:	0a00                	addi	s0,sp,272
 13e:	0165                	addi	sp,sp,25
 140:	0000                	unimp
 142:	0000                	unimp
 144:	0000                	unimp
 146:	0b00                	addi	s0,sp,400
 148:	0104                	addi	s1,sp,128
 14a:	0000                	unimp
 14c:	4186                	lw	gp,64(sp)
 14e:	0001                	nop
 150:	0c00                	addi	s0,sp,528
 152:	22860073          	0x22860073
 156:	0141                	addi	sp,sp,16
 158:	0000                	unimp
 15a:	630d                	lui	t1,0x3
 15c:	8800                	0x8800
 15e:	00014607          	flq	fa2,0(sp) # 0 <ROM_BASE>
 162:	0000                	unimp
 164:	4d04                	lw	s1,24(a0)
 166:	0001                	nop
 168:	0100                	addi	s0,sp,128
 16a:	0801                	addi	a6,a6,0
 16c:	0050                	addi	a2,sp,4
 16e:	0000                	unimp
 170:	4605                	li	a2,1
 172:	0001                	nop
 174:	0b00                	addi	s0,sp,400
 176:	0119                	addi	sp,sp,6
 178:	0000                	unimp
 17a:	707e                	0x707e
 17c:	0001                	nop
 17e:	0c00                	addi	s0,sp,528
 180:	1a7e0063          	beq	t3,t2,320 <ROM_BASE+0x320>
 184:	0146                	slli	sp,sp,0x11
 186:	0000                	unimp
 188:	740d                	lui	s0,0xfffe3
 18a:	0078                	addi	a4,sp,12
 18c:	1580                	addi	s0,sp,736
 18e:	000000a7          	0xa7
 192:	1300                	addi	s0,sp,416
 194:	0152                	slli	sp,sp,0x14
 196:	0000                	unimp
 198:	041c                	addi	a5,sp,512
 19a:	0000                	unimp
 19c:	0000                	unimp
 19e:	0000                	unimp
 1a0:	0018                	0x18
 1a2:	0000                	unimp
 1a4:	0000                	unimp
 1a6:	0000                	unimp
 1a8:	9c01                	subw	s0,s0,s0
 1aa:	019e                	slli	gp,gp,0x7
 1ac:	0000                	unimp
 1ae:	00015c03          	lhu	s8,0(sp)
 1b2:	6500                	ld	s0,8(a0)
 1b4:	0000                	unimp
 1b6:	1400                	addi	s0,sp,544
 1b8:	0165                	addi	sp,sp,25
 1ba:	0000                	unimp
 1bc:	0000                	unimp
 1be:	5400                	lw	s0,40(s0)
 1c0:	1500                	addi	s0,sp,672
 1c2:	0124                	addi	s1,sp,136
 1c4:	0000                	unimp
 1c6:	0434                	addi	a3,sp,520
 1c8:	0000                	unimp
 1ca:	0000                	unimp
 1cc:	0000                	unimp
 1ce:	002c                	addi	a1,sp,8
 1d0:	0000                	unimp
 1d2:	0000                	unimp
 1d4:	0000                	unimp
 1d6:	9c01                	subw	s0,s0,s0
 1d8:	00012e03          	lw	t3,0(sp)
 1dc:	8f00                	0x8f00
 1de:	0000                	unimp
 1e0:	0800                	addi	s0,sp,16
 1e2:	00000137          	lui	sp,0x0
 1e6:	00b6                	slli	ra,ra,0xd
 1e8:	0000                	unimp
 1ea:	5216                	lw	tp,100(sp)
 1ec:	0001                	nop
 1ee:	3c00                	fld	fs0,56(s0)
 1f0:	0004                	0x4
 1f2:	0000                	unimp
 1f4:	0000                	unimp
 1f6:	1400                	addi	s0,sp,544
 1f8:	0000                	unimp
 1fa:	0000                	unimp
 1fc:	0000                	unimp
 1fe:	0100                	addi	s0,sp,128
 200:	038a                	slli	t2,t2,0x2
 202:	5c09                	li	s8,-30
 204:	0001                	nop
 206:	0a00                	addi	s0,sp,272
 208:	0165                	addi	sp,sp,25
 20a:	0000                	unimp
 20c:	0000                	unimp
	...

Disassembly of section .debug_abbrev:

0000000000000000 <.debug_abbrev>:
  li   a0, 0x1  
   0:	1101                	addi	sp,sp,-32
   2:	1000                	addi	s0,sp,32
  slli a1, a0, 12
   4:	03175517          	auipc	a0,0x3175
  li   sp, 0x2000000
   8:	1b0e                	slli	s6,s6,0x23
   a:	250e                	fld	fa0,192(sp)
  add  x0, x0, x0
   c:	130e                	slli	t1,t1,0x23
   e:	0005                	c.nop	1
  add  x0, x0, x0
  10:	0000                	unimp
  12:	2401                	sext.w	s0,s0
  add  sp, sp, a1
  14:	0b00                	addi	s0,sp,400
  16:	030b3e0b          	0x30b3e0b
  lb   a1, 0(sp)
  1a:	000e                	c.slli	zero,0x3
  csrr a0, mhartid
  1c:	0200                	addi	s0,sp,256
  1e:	0016                	c.slli	zero,0x5
  call main
  20:	0b3a0e03          	lb	t3,179(s4)
  csrr a0, mhartid
  24:	0b390b3b          	0xb390b3b
  la a1, _dtb
  28:	1349                	addi	t1,t1,-14
  2a:	0000                	unimp
  2c:	31000503          	lb	a0,784(zero) # 310 <ROM_BASE+0x310>
  jr s0
  30:	00170213          	addi	tp,a4,1
  34:	0400                	addi	s0,sp,512
  36:	210b000f          	0x210b000f
  3a:	4908                	lw	a0,16(a0)
  3c:	05000013          	li	zero,80
  40:	0026                	c.slli	zero,0x9
  42:	1349                	addi	t1,t1,-14
  44:	0000                	unimp
  46:	1d06                	slli	s10,s10,0x21
  48:	3101                	addiw	sp,sp,-32
  4a:	55015213          	0x55015213
  4e:	01215817          	auipc	a6,0x1215
  52:	0b59                	addi	s6,s6,22
  54:	00000b57          	0xb57
  58:	55010b07          	0x55010b07
  5c:	08000017          	auipc	zero,0x8000
  60:	0034                	addi	a3,sp,8
  62:	1331                	addi	t1,t1,-20
  64:	1702                	slli	a4,a4,0x20
  66:	0000                	unimp
  68:	0509                	addi	a0,a0,2
  6a:	3100                	fld	fs0,32(a0)
  6c:	0a000013          	li	zero,160
  70:	0034                	addi	a3,sp,8
  72:	1331                	addi	t1,t1,-20
  74:	0000                	unimp
  76:	3f012e0b          	0x3f012e0b
  7a:	0319                	addi	t1,t1,6
  7c:	3a0e                	fld	fs4,224(sp)
  7e:	0121                	addi	sp,sp,8
  80:	21390b3b          	0x21390b3b
  84:	2019270f          	0x2019270f
  88:	0121                	addi	sp,sp,8
  8a:	1301                	addi	t1,t1,-32
  8c:	0000                	unimp
  8e:	050c                	addi	a1,sp,640
  90:	0300                	addi	s0,sp,384
  92:	3a08                	fld	fa0,48(a2)
  94:	0121                	addi	sp,sp,8
  96:	0b390b3b          	0xb390b3b
  9a:	1349                	addi	t1,t1,-14
  9c:	0000                	unimp
  9e:	340d                	addiw	s0,s0,-29
  a0:	0300                	addi	s0,sp,384
  a2:	3a08                	fld	fa0,48(a2)
  a4:	0121                	addi	sp,sp,8
  a6:	0b390b3b          	0xb390b3b
  aa:	1349                	addi	t1,t1,-14
  ac:	0000                	unimp
  ae:	110e                	slli	sp,sp,0x23
  b0:	2501                	sext.w	a0,a0
  b2:	130e                	slli	t1,t1,0x23
  b4:	1b1f030b          	0x1b1f030b
  b8:	551f 1117 1001      	0x10011117551f
  be:	0f000017          	auipc	zero,0xf000
  c2:	0024                	addi	s1,sp,8
  c4:	0b3e0b0b          	0xb3e0b0b
  c8:	00000803          	lb	a6,0(zero) # 0 <ROM_BASE>
  cc:	3510                	fld	fa2,40(a0)
  ce:	4900                	lw	s0,16(a0)
  d0:	11000013          	li	zero,272
  d4:	0034                	addi	a3,sp,8
  d6:	0b3a0e03          	lb	t3,179(s4)
  da:	0b390b3b          	0xb390b3b
  de:	1349                	addi	t1,t1,-14
  e0:	061c                	addi	a5,sp,768
  e2:	0000                	unimp
  e4:	2e12                	fld	ft8,256(sp)
  e6:	3f01                	addiw	t5,t5,-32
  e8:	0319                	addi	t1,t1,6
  ea:	3a0e                	fld	fs4,224(sp)
  ec:	390b3b0b          	0x390b3b0b
  f0:	4919270b          	0x4919270b
  f4:	12011113          	0x12011113
  f8:	7a184007          	flq	ft0,1953(a6) # 12157ef <_dtb+0x1214fef>
  fc:	0119                	addi	sp,sp,6
  fe:	13000013          	li	zero,304
 102:	012e                	slli	sp,sp,0xb
 104:	1331                	addi	t1,t1,-20
 106:	0111                	addi	sp,sp,4
 108:	0712                	slli	a4,a4,0x4
 10a:	1840                	addi	s0,sp,52
 10c:	197a                	slli	s2,s2,0x3e
 10e:	1301                	addi	t1,t1,-32
 110:	0000                	unimp
 112:	3414                	fld	fa3,40(s0)
 114:	3100                	fld	fs0,32(a0)
 116:	00061c13          	slli	s8,a2,0x0
 11a:	1500                	addi	s0,sp,672
 11c:	012e                	slli	sp,sp,0xb
 11e:	1331                	addi	t1,t1,-20
 120:	0111                	addi	sp,sp,4
 122:	0712                	slli	a4,a4,0x4
 124:	1840                	addi	s0,sp,52
 126:	197a                	slli	s2,s2,0x3e
 128:	0000                	unimp
 12a:	1d16                	slli	s10,s10,0x25
 12c:	3101                	addiw	sp,sp,-32
 12e:	12011113          	0x12011113
 132:	590b5807          	0x590b5807
 136:	000b570b          	0xb570b
	...

Disassembly of section .debug_aranges:

0000000000000000 <.debug_aranges>:
  li   a0, 0x1  
   0:	003c                	addi	a5,sp,8
   2:	0000                	unimp
  slli a1, a0, 12
   4:	0002                	c.slli64	zero
   6:	0000                	unimp
  li   sp, 0x2000000
   8:	0000                	unimp
   a:	0008                	0x8
	...
  lb   a1, 0(sp)
  18:	0034                	addi	a3,sp,8
  1a:	0000                	unimp
  csrr a0, mhartid
  1c:	0000                	unimp
  1e:	0000                	unimp
  call main
  20:	0400                	addi	s0,sp,512
  22:	0000                	unimp
  csrr a0, mhartid
  24:	0000                	unimp
  26:	0000                	unimp
  la a1, _dtb
  28:	001c                	0x1c
	...
  3e:	0000                	unimp
  40:	003c                	addi	a5,sp,8
  42:	0000                	unimp
  44:	0002                	c.slli64	zero
  46:	00000023          	sb	zero,0(zero) # 0 <ROM_BASE>
  4a:	0008                	0x8
  4c:	0000                	unimp
  4e:	0000                	unimp
  50:	041c                	addi	a5,sp,512
  52:	0000                	unimp
  54:	0000                	unimp
  56:	0000                	unimp
  58:	0044                	addi	s1,sp,4
  5a:	0000                	unimp
  5c:	0000                	unimp
  5e:	0000                	unimp
  60:	0460                	addi	s0,sp,524
  62:	0000                	unimp
  64:	0000                	unimp
  66:	0000                	unimp
  68:	0030                	addi	a2,sp,8
	...

Disassembly of section .debug_str:

0000000000000000 <.debug_str>:
  li   a0, 0x1  
   0:	6f62                	ld	t5,24(sp)
   2:	6f72746f          	jal	s0,27ef8 <_dtb+0x276f8>
  slli a1, a0, 12
   6:	2e6d                	addiw	t3,t3,27
  li   sp, 0x2000000
   8:	682f0053          	0x682f0053
  add  x0, x0, x0
   c:	2f656d6f          	jal	s10,56302 <_dtb+0x55b02>
  add  x0, x0, x0
  10:	6f64                	ld	s1,216(a4)
  12:	676e                	ld	a4,216(sp)
  add  sp, sp, a1
  14:	6564                	ld	s1,200(a0)
  16:	696a                	ld	s2,152(sp)
  lb   a1, 0(sp)
  18:	6168732f          	0x6168732f
  csrr a0, mhartid
  1c:	6572                	ld	a0,280(sp)
  1e:	646f632f          	0x646f632f
  call main
  22:	2f65                	addiw	t5,t5,25
  csrr a0, mhartid
  24:	706e                	0x706e
  26:	7375                	lui	t1,0xffffd
  la a1, _dtb
  28:	6f6f622f          	0x6f6f622f
  2c:	7274                	ld	a3,224(a2)
  2e:	47006d6f          	jal	s10,649e <_dtb+0x5c9e>
  jr s0
  32:	554e                	lw	a0,240(sp)
  34:	4120                	lw	s0,64(a0)
  36:	2e322053          	0x2e322053
  3a:	5f003733          	0x5f003733
  3e:	695f 746e 3233      	0x3233746e695f
  44:	745f 7500 736e      	0x736e7500745f
  4a:	6769                	lui	a4,0x1a
  4c:	656e                	ld	a0,216(sp)
  4e:	2064                	fld	fs1,192(s0)
  50:	72616863          	bltu	sp,t1,780 <main+0x320>
  54:	6c00                	ld	s0,24(s0)
  56:	20676e6f          	jal	t3,7625c <_dtb+0x75a5c>
  5a:	6e75                	lui	t3,0x1d
  5c:	6e676973          	csrrsi	s2,0x6e6,14
  60:	6465                	lui	s0,0x19
  62:	6920                	ld	s0,80(a0)
  64:	746e                	ld	s0,248(sp)
  66:	7300                	ld	s0,32(a4)
  68:	6f68                	ld	a0,216(a4)
  6a:	7472                	ld	s0,312(sp)
  6c:	7520                	ld	s0,104(a0)
  6e:	736e                	ld	t1,248(sp)
  70:	6769                	lui	a4,0x1a
  72:	656e                	ld	a0,216(sp)
  74:	2064                	fld	fs1,192(s0)
  76:	6e69                	lui	t3,0x1a
  78:	0074                	addi	a3,sp,12
  7a:	5f5f 6975 746e      	0x746e69755f5f
  80:	745f3233          	0x745f3233
  84:	6d00                	ld	s0,24(a0)
  86:	6961                	lui	s2,0x18
  88:	006e                	c.slli	zero,0x1b
  8a:	20554e47          	fmsub.s	ft8,fa0,ft5,ft4,rmm
  8e:	20313143          	fmadd.s	ft2,ft2,ft3,ft4,rup
  92:	3131                	addiw	sp,sp,-20
  94:	312e                	fld	ft2,232(sp)
  96:	302e                	fld	ft0,232(sp)
  98:	2d20                	fld	fs0,88(a0)
  9a:	616d                	addi	sp,sp,240
  9c:	6372                	ld	t1,280(sp)
  9e:	3d68                	fld	fa0,248(a0)
  a0:	7672                	ld	a2,312(sp)
  a2:	3436                	fld	fs0,360(sp)
  a4:	2069                	0x2069
  a6:	6d2d                	lui	s10,0xb
  a8:	646f6d63          	bltu	t5,t1,702 <main+0x2a2>
  ac:	6c65                	lui	s8,0x19
  ae:	6d3d                	lui	s10,0xf
  b0:	6465                	lui	s0,0x19
  b2:	6e61                	lui	t3,0x18
  b4:	2079                	0x2079
  b6:	6d2d                	lui	s10,0xb
  b8:	6261                	lui	tp,0x18
  ba:	3d69                	addiw	s10,s10,-6
  bc:	706c                	ld	a1,224(s0)
  be:	3436                	fld	fs0,360(sp)
  c0:	2d20                	fld	fs0,88(a0)
  c2:	746d                	lui	s0,0xffffb
  c4:	6e75                	lui	t3,0x1d
  c6:	3d65                	addiw	s10,s10,-7
  c8:	6f72                	ld	t5,280(sp)
  ca:	74656b63          	bltu	a0,t1,820 <_dtb+0x20>
  ce:	2d20                	fld	fs0,88(a0)
  d0:	616d                	addi	sp,sp,240
  d2:	6372                	ld	t1,280(sp)
  d4:	3d68                	fld	fa0,248(a0)
  d6:	7672                	ld	a2,312(sp)
  d8:	3436                	fld	fs0,360(sp)
  da:	2069                	0x2069
  dc:	672d                	lui	a4,0xb
  de:	2d20                	fld	fs0,88(a0)
  e0:	2d20324f          	0x2d20324f
  e4:	3d647473          	csrrci	s0,0x3d6,8
  e8:	31756e67          	0x31756e67
  ec:	2031                	0x2031
  ee:	662d                	lui	a2,0xb
  f0:	6f6e                	ld	t5,216(sp)
  f2:	632d                	lui	t1,0xb
  f4:	6f6d6d6f          	jal	s10,d67ea <_dtb+0xd5fea>
  f8:	006e                	c.slli	zero,0x1b
  fa:	726f6873          	csrrsi	a6,0x726,30
  fe:	2074                	fld	fa3,192(s0)
 100:	6e69                	lui	t3,0x1a
 102:	0074                	addi	a3,sp,12
 104:	6b5f 7570 7374      	0x737475706b5f
 10a:	7500                	ld	s0,40(a0)
 10c:	7261                	lui	tp,0xffff8
 10e:	0074                	addi	a3,sp,12
 110:	6f6c                	ld	a1,216(a4)
 112:	676e                	ld	a4,216(sp)
 114:	6920                	ld	s0,80(a0)
 116:	746e                	ld	s0,248(sp)
 118:	6b00                	ld	s0,16(a4)
 11a:	7570                	ld	a2,232(a0)
 11c:	6374                	ld	a3,192(a4)
	...

Disassembly of section .debug_rnglists:

0000000000000000 <.debug_rnglists>:
  li   a0, 0x1  
   0:	001d                	c.nop	7
   2:	0000                	unimp
  slli a1, a0, 12
   4:	0005                	c.nop	1
   6:	0008                	0x8
  li   sp, 0x2000000
   8:	0000                	unimp
   a:	0000                	unimp
  add  x0, x0, x0
   c:	00000007          	0x7
  add  x0, x0, x0
  10:	0000                	unimp
  12:	0000                	unimp
  add  sp, sp, a1
  14:	3800                	fld	fs0,48(s0)
  16:	00040007          	0x40007
  lb   a1, 0(sp)
  1a:	0000                	unimp
  csrr a0, mhartid
  1c:	0000                	unimp
  1e:	1c00                	addi	s0,sp,560
  call main
  20:	8200                	0x8200
  22:	0000                	unimp
  csrr a0, mhartid
  24:	0500                	addi	s0,sp,640
  26:	0800                	addi	s0,sp,16
  la a1, _dtb
  28:	0000                	unimp
  2a:	0000                	unimp
  2c:	0600                	addi	s0,sp,768
  2e:	0460                	addi	s0,sp,524
  jr s0
  30:	0000                	unimp
  32:	0000                	unimp
  34:	0000                	unimp
  36:	0464                	addi	s1,sp,524
  38:	0000                	unimp
  3a:	0000                	unimp
  3c:	0000                	unimp
  3e:	6406                	ld	s0,64(sp)
  40:	0004                	0x4
  42:	0000                	unimp
  44:	0000                	unimp
  46:	6400                	ld	s0,8(s0)
  48:	0004                	0x4
  4a:	0000                	unimp
  4c:	0000                	unimp
  4e:	0600                	addi	s0,sp,768
  50:	046c                	addi	a1,sp,524
  52:	0000                	unimp
  54:	0000                	unimp
  56:	0000                	unimp
  58:	0490                	addi	a2,sp,576
  5a:	0000                	unimp
  5c:	0000                	unimp
  5e:	0000                	unimp
  60:	0600                	addi	s0,sp,768
  62:	0460                	addi	s0,sp,524
  64:	0000                	unimp
  66:	0000                	unimp
  68:	0000                	unimp
  6a:	0464                	addi	s1,sp,524
  6c:	0000                	unimp
  6e:	0000                	unimp
  70:	0000                	unimp
  72:	7006                	0x7006
  74:	0004                	0x4
  76:	0000                	unimp
  78:	0000                	unimp
  7a:	8000                	0x8000
  7c:	0004                	0x4
  7e:	0000                	unimp
  80:	0000                	unimp
  82:	0000                	unimp
  84:	1c06                	slli	s8,s8,0x21
  86:	0004                	0x4
  88:	0000                	unimp
  8a:	0000                	unimp
  8c:	6000                	ld	s0,0(s0)
  8e:	0004                	0x4
  90:	0000                	unimp
  92:	0000                	unimp
  94:	0600                	addi	s0,sp,768
  96:	0460                	addi	s0,sp,524
  98:	0000                	unimp
  9a:	0000                	unimp
  9c:	0000                	unimp
  9e:	0490                	addi	a2,sp,576
  a0:	0000                	unimp
  a2:	0000                	unimp
  a4:	0000                	unimp
	...

Disassembly of section .debug_loclists:

0000000000000000 <.debug_loclists>:
  li   a0, 0x1  
   0:	00d9                	addi	ra,ra,22
   2:	0000                	unimp
  slli a1, a0, 12
   4:	0005                	c.nop	1
   6:	0008                	0x8
  li   sp, 0x2000000
   8:	0000                	unimp
   a:	0000                	unimp
  add  x0, x0, x0
   c:	00046407          	0x46407
  add  x0, x0, x0
  10:	0000                	unimp
  12:	0000                	unimp
  add  sp, sp, a1
  14:	7000                	ld	s0,32(s0)
  16:	0004                	0x4
  lb   a1, 0(sp)
  18:	0000                	unimp
  1a:	0000                	unimp
  csrr a0, mhartid
  1c:	0a00                	addi	s0,sp,272
  1e:	00081003          	lh	zero,0(a6)
  call main
  22:	0000                	unimp
  csrr a0, mhartid
  24:	0000                	unimp
  26:	9f00                	0x9f00
  la a1, _dtb
  28:	00048807          	0x48807
  2c:	0000                	unimp
  2e:	0000                	unimp
  jr s0
  30:	9000                	0x9000
  32:	0004                	0x4
  34:	0000                	unimp
  36:	0000                	unimp
  38:	0100                	addi	s0,sp,128
  3a:	005c                	addi	a5,sp,4
  3c:	00046407          	0x46407
  40:	0000                	unimp
  42:	0000                	unimp
  44:	7000                	ld	s0,32(s0)
  46:	0004                	0x4
  48:	0000                	unimp
  4a:	0000                	unimp
  4c:	0300                	addi	s0,sp,384
  4e:	4808                	lw	a0,16(s0)
  50:	079f 0488 0000      	0x488079f
  56:	0000                	unimp
  58:	0000                	unimp
  5a:	0490                	addi	a2,sp,576
  5c:	0000                	unimp
  5e:	0000                	unimp
  60:	0000                	unimp
  62:	5d01                	li	s10,-32
  64:	0700                	addi	s0,sp,896
  66:	041c                	addi	a5,sp,512
  68:	0000                	unimp
  6a:	0000                	unimp
  6c:	0000                	unimp
  6e:	042c                	addi	a1,sp,520
  70:	0000                	unimp
  72:	0000                	unimp
  74:	0000                	unimp
  76:	5a01                	li	s4,-32
  78:	00042c07          	flw	fs8,0(s0) # ffffffffffffb000 <_dtb+0xffffffffffffa800>
  7c:	0000                	unimp
  7e:	0000                	unimp
  80:	3400                	fld	fs0,40(s0)
  82:	0004                	0x4
  84:	0000                	unimp
  86:	0000                	unimp
  88:	0400                	addi	s0,sp,512
  8a:	9f5a01a3          	sb	s5,-1565(s4)
  8e:	0700                	addi	s0,sp,896
  90:	0434                	addi	a3,sp,520
  92:	0000                	unimp
  94:	0000                	unimp
  96:	0000                	unimp
  98:	0458                	addi	a4,sp,516
  9a:	0000                	unimp
  9c:	0000                	unimp
  9e:	0000                	unimp
  a0:	5a01                	li	s4,-32
  a2:	00045807          	0x45807
  a6:	0000                	unimp
  a8:	0000                	unimp
  aa:	6000                	ld	s0,0(s0)
  ac:	0004                	0x4
  ae:	0000                	unimp
  b0:	0000                	unimp
  b2:	0100                	addi	s0,sp,128
  b4:	005a                	c.slli	zero,0x16
  b6:	00043807          	fld	fa6,0(s0)
  ba:	0000                	unimp
  bc:	0000                	unimp
  be:	4c00                	lw	s0,24(s0)
  c0:	0004                	0x4
  c2:	0000                	unimp
  c4:	0000                	unimp
  c6:	0100                	addi	s0,sp,128
  c8:	075d                	addi	a4,a4,23
  ca:	0458                	addi	a4,sp,516
  cc:	0000                	unimp
  ce:	0000                	unimp
  d0:	0000                	unimp
  d2:	0460                	addi	s0,sp,524
  d4:	0000                	unimp
  d6:	0000                	unimp
  d8:	0000                	unimp
  da:	5d01                	li	s10,-32
	...

Disassembly of section .debug_frame:

0000000000000000 <.debug_frame>:
  li   a0, 0x1  
   0:	000c                	0xc
   2:	0000                	unimp
  slli a1, a0, 12
   4:	ffff                	0xffff
   6:	ffff                	0xffff
  li   sp, 0x2000000
   8:	7c010003          	lb	zero,1984(sp) # 7c0 <main+0x360>
  add  x0, x0, x0
   c:	0d01                	addi	s10,s10,0
   e:	0002                	c.slli64	zero
  add  x0, x0, x0
  10:	0014                	0x14
  12:	0000                	unimp
  add  sp, sp, a1
  14:	0000                	unimp
  16:	0000                	unimp
  lb   a1, 0(sp)
  18:	041c                	addi	a5,sp,512
  1a:	0000                	unimp
  csrr a0, mhartid
  1c:	0000                	unimp
  1e:	0000                	unimp
  call main
  20:	0018                	0x18
  22:	0000                	unimp
  csrr a0, mhartid
  24:	0000                	unimp
  26:	0000                	unimp
  la a1, _dtb
  28:	0014                	0x14
  2a:	0000                	unimp
  2c:	0000                	unimp
  2e:	0000                	unimp
  jr s0
  30:	0434                	addi	a3,sp,520
  32:	0000                	unimp
  34:	0000                	unimp
  36:	0000                	unimp
  38:	002c                	addi	a1,sp,8
  3a:	0000                	unimp
  3c:	0000                	unimp
  3e:	0000                	unimp
  40:	0014                	0x14
  42:	0000                	unimp
  44:	0000                	unimp
  46:	0000                	unimp
  48:	0460                	addi	s0,sp,524
  4a:	0000                	unimp
  4c:	0000                	unimp
  4e:	0000                	unimp
  50:	0030                	addi	a2,sp,8
  52:	0000                	unimp
  54:	0000                	unimp
	...
