
bootrom.elf：     文件格式 elf64-littleriscv


Disassembly of section .text.start:

0000000000000000 <_start>:
   0:	00100513          	addi	x10,x0,1
   4:	00c51593          	slli	x11,x10,0xc
   8:	02000137          	lui	x2,0x2000
   c:	00000033          	add	x0,x0,x0
  10:	00000033          	add	x0,x0,x0
  14:	00b10133          	add	x2,x2,x11
  18:	00010583          	lb	x11,0(x2) # 2000000 <_dtb+0x1fff800>
  1c:	f1402573          	csrrs	x10,mhartid,x0
  20:	440000ef          	jal	x1,460 <main>
  24:	f1402573          	csrrs	x10,mhartid,x0
  28:	00000597          	auipc	x11,0x0
  2c:	7d858593          	addi	x11,x11,2008 # 800 <_dtb>
  30:	00040067          	jalr	x0,0(x8)

Disassembly of section .text.hang:

0000000000000400 <_hang>:
 400:	7c105073          	csrrwi	x0,0x7c1,0
 404:	f1402573          	csrrs	x10,mhartid,x0
 408:	00000597          	auipc	x11,0x0
 40c:	3f858593          	addi	x11,x11,1016 # 800 <_dtb>
 410:	30405073          	csrrwi	x0,mie,0
 414:	10500073          	wfi
 418:	ffdff06f          	jal	x0,414 <_hang+0x14>

Disassembly of section .text:

000000000000041c <kputc>:
 41c:	54000737          	lui	x14,0x54000
 420:	00072783          	lw	x15,0(x14) # 54000000 <_dtb+0x53fff800>
 424:	fe07cee3          	blt	x15,x0,420 <kputc+0x4>
 428:	0005051b          	addiw	x10,x10,0
 42c:	00a72023          	sw	x10,0(x14)
 430:	00008067          	jalr	x0,0(x1)

0000000000000434 <_kputs>:
 434:	00054683          	lbu	x13,0(x10)
 438:	02068263          	beq	x13,x0,45c <_kputs+0x28>
 43c:	54000737          	lui	x14,0x54000
 440:	00072783          	lw	x15,0(x14) # 54000000 <_dtb+0x53fff800>
 444:	fe07cee3          	blt	x15,x0,440 <_kputs+0xc>
 448:	0006869b          	addiw	x13,x13,0
 44c:	00d72023          	sw	x13,0(x14)
 450:	00154683          	lbu	x13,1(x10)
 454:	00150513          	addi	x10,x10,1
 458:	fe0694e3          	bne	x13,x0,440 <_kputs+0xc>
 45c:	00008067          	jalr	x0,0(x1)

Disassembly of section .text.startup:

0000000000000460 <main>:
 460:	54000737          	lui	x14,0x54000
 464:	00000617          	auipc	x12,0x0
 468:	3ac60613          	addi	x12,x12,940 # 810 <_dtb+0x10>
 46c:	04800693          	addi	x13,x0,72
 470:	00072783          	lw	x15,0(x14) # 54000000 <_dtb+0x53fff800>
 474:	fe07cee3          	blt	x15,x0,470 <main+0x10>
 478:	0006869b          	addiw	x13,x13,0
 47c:	00d72023          	sw	x13,0(x14)
 480:	00164683          	lbu	x13,1(x12)
 484:	00160613          	addi	x12,x12,1
 488:	fe0694e3          	bne	x13,x0,470 <main+0x10>
 48c:	fd9ff06f          	jal	x0,464 <main+0x4>
