
bootrom.elf：     文件格式 elf64-littleriscv


Disassembly of section .text.start:

0000000000000000 <_start>:
#define DRAM_BASE 0x80000000

.section .text.start, "ax", @progbits
.globl _start
_start:
  csrwi 0x7c1, 0 // disable chicken bits
   0:	7c105073          	csrwi	0x7c1,0
  csrr a0, mhartid
   4:	f1402573          	csrr	a0,mhartid
  addi a0, a0, 1
   8:	00150513          	addi	a0,a0,1
  slli a1, a0, 12
   c:	00c51593          	slli	a1,a0,0xc
  li   sp, 0x2000000
  10:	02000137          	lui	sp,0x2000
  add  sp, sp, a1
  14:	00b10133          	add	sp,sp,a1
  lb   a1, 0(sp)
  18:	00010583          	lb	a1,0(sp) # 2000000 <_dtb+0x1fff800>
  csrr a0, mhartid
  1c:	f1402573          	csrr	a0,mhartid
  call main
  20:	440000ef          	jal	ra,460 <main>
  csrr a0, mhartid
  24:	f1402573          	csrr	a0,mhartid
  la a1, _dtb
  28:	00000597          	auipc	a1,0x0
  2c:	7d858593          	addi	a1,a1,2008 # 800 <_dtb>
  jr s0
  30:	00040067          	jr	s0

Disassembly of section .text.hang:

0000000000000400 <_hang>:

.section .text.hang, "ax", @progbits
.globl _hang
_hang:
  csrwi 0x7c1, 0 // disable chicken bits
 400:	7c105073          	csrwi	0x7c1,0
  csrr a0, mhartid
 404:	f1402573          	csrr	a0,mhartid
  la a1, _dtb
 408:	00000597          	auipc	a1,0x0
 40c:	3f858593          	addi	a1,a1,1016 # 800 <_dtb>
  csrwi mie, 0
 410:	30405073          	csrwi	mie,0
1:
  wfi
 414:	10500073          	wfi
  j 1b
 418:	ffdff06f          	j	414 <_hang+0x14>

Disassembly of section .text:

000000000000041c <kputc>:

volatile void kputc(char c)
{
	volatile uint32_t *tx = &REG32(uart, UART_REG_TXFIFO);

	while ((int32_t)(*tx) < 0);
 41c:	54000737          	lui	a4,0x54000
 420:	00072783          	lw	a5,0(a4) # 54000000 <_dtb+0x53fff800>
 424:	fe07cee3          	bltz	a5,420 <kputc+0x4>
	*tx = c;
 428:	0005051b          	sext.w	a0,a0
 42c:	00a72023          	sw	a0,0(a4)
}
 430:	00008067          	ret

0000000000000434 <_kputs>:

volatile void _kputs(const char *s)
{
	char c;
	for (; (c = *s) != '\0'; s++)
 434:	00054683          	lbu	a3,0(a0)
 438:	02068263          	beqz	a3,45c <_kputs+0x28>
	while ((int32_t)(*tx) < 0);
 43c:	54000737          	lui	a4,0x54000
 440:	00072783          	lw	a5,0(a4) # 54000000 <_dtb+0x53fff800>
 444:	fe07cee3          	bltz	a5,440 <_kputs+0xc>
	*tx = c;
 448:	0006869b          	sext.w	a3,a3
 44c:	00d72023          	sw	a3,0(a4)
	for (; (c = *s) != '\0'; s++)
 450:	00154683          	lbu	a3,1(a0)
 454:	00150513          	addi	a0,a0,1
 458:	fe0694e3          	bnez	a3,440 <_kputs+0xc>
		kputc(c);
}
 45c:	00008067          	ret

Disassembly of section .text.startup:

0000000000000460 <main>:


int main(void)
{
 460:	f8010113          	addi	sp,sp,-128
                       0x9999, 0xaaaa, 0xbbbb, 0xcccc, \
                       0xdddd, 0xeeee, 0xffff, 0x5a5a };
  uint64_t y1, y2, y3, y4, y5, y6, y7, y8 ;
  while(1)
  {
    doCustom(y1, y2, y3, y4, data[0], data[1],  data[2],  data[3],  data[4],  data[5],  data[6],  data[7]);
 464:	000067b7          	lui	a5,0x6
{
 468:	06113c23          	sd	ra,120(sp)
 46c:	06813823          	sd	s0,112(sp)
 470:	06913423          	sd	s1,104(sp)
 474:	05613023          	sd	s6,64(sp)
 478:	03713c23          	sd	s7,56(sp)
 47c:	03813823          	sd	s8,48(sp)
 480:	03913423          	sd	s9,40(sp)
 484:	03a13023          	sd	s10,32(sp)
 488:	01b13c23          	sd	s11,24(sp)
    doCustom(y1, y2, y3, y4, data[0], data[1],  data[2],  data[3],  data[4],  data[5],  data[6],  data[7]);
 48c:	00001d37          	lui	s10,0x1
 490:	00002cb7          	lui	s9,0x2
 494:	00003c37          	lui	s8,0x3
 498:	00004bb7          	lui	s7,0x4
 49c:	00005b37          	lui	s6,0x5
 4a0:	66678d93          	addi	s11,a5,1638 # 6666 <_dtb+0x5e66>
 4a4:	000074b7          	lui	s1,0x7
 4a8:	00009437          	lui	s0,0x9
    doCustom(y5, y6, y7, y8, data[8], data[9], data[10], data[11], data[12], data[13], data[14], data[15]);
 4ac:	0000a0b7          	lui	ra,0xa
 4b0:	0000b3b7          	lui	t2,0xb
 4b4:	0000c2b7          	lui	t0,0xc
 4b8:	0000dfb7          	lui	t6,0xd
 4bc:	0000ef37          	lui	t5,0xe
 4c0:	0000feb7          	lui	t4,0xf
 4c4:	00010e37          	lui	t3,0x10
 4c8:	a5a78793          	addi	a5,a5,-1446
{
 4cc:	07213023          	sd	s2,96(sp)
 4d0:	05313c23          	sd	s3,88(sp)
 4d4:	05413823          	sd	s4,80(sp)
 4d8:	05513423          	sd	s5,72(sp)
    doCustom(y1, y2, y3, y4, data[0], data[1],  data[2],  data[3],  data[4],  data[5],  data[6],  data[7]);
 4dc:	111d0d13          	addi	s10,s10,273 # 1111 <_dtb+0x911>
 4e0:	222c8c93          	addi	s9,s9,546 # 2222 <_dtb+0x1a22>
 4e4:	333c0c13          	addi	s8,s8,819 # 3333 <_dtb+0x2b33>
 4e8:	444b8b93          	addi	s7,s7,1092 # 4444 <_dtb+0x3c44>
 4ec:	555b0b13          	addi	s6,s6,1365 # 5555 <_dtb+0x4d55>
 4f0:	77748493          	addi	s1,s1,1911 # 7777 <_dtb+0x6f77>
 4f4:	88840413          	addi	s0,s0,-1912 # 8888 <_dtb+0x8088>
    doCustom(y5, y6, y7, y8, data[8], data[9], data[10], data[11], data[12], data[13], data[14], data[15]);
 4f8:	99908093          	addi	ra,ra,-1639 # 9999 <_dtb+0x9199>
 4fc:	aaa38393          	addi	t2,t2,-1366 # aaaa <_dtb+0xa2aa>
 500:	bbb28293          	addi	t0,t0,-1093 # bbbb <_dtb+0xb3bb>
 504:	cccf8f93          	addi	t6,t6,-820 # cccc <_dtb+0xc4cc>
 508:	dddf0f13          	addi	t5,t5,-547 # dddd <_dtb+0xd5dd>
 50c:	eeee8e93          	addi	t4,t4,-274 # eeee <_dtb+0xe6ee>
 510:	fffe0e13          	addi	t3,t3,-1 # ffff <_dtb+0xf7ff>
 514:	00f13423          	sd	a5,8(sp)
	while ((int32_t)(*tx) < 0);
 518:	54000337          	lui	t1,0x54000
    doCustom(y1, y2, y3, y4, data[0], data[1],  data[2],  data[3],  data[4],  data[5],  data[6],  data[7]);
 51c:	000d0713          	mv	a4,s10
 520:	000c8793          	mv	a5,s9
 524:	000c0813          	mv	a6,s8
 528:	000b8893          	mv	a7,s7
 52c:	000b0913          	mv	s2,s6
 530:	000d8993          	mv	s3,s11
 534:	00048a13          	mv	s4,s1
 538:	00040a93          	mv	s5,s0
 53c:	0127757b          	0x127757b
    doCustom(y5, y6, y7, y8, data[8], data[9], data[10], data[11], data[12], data[13], data[14], data[15]);
 540:	00008713          	mv	a4,ra
 544:	00038793          	mv	a5,t2
 548:	00028813          	mv	a6,t0
 54c:	000f8893          	mv	a7,t6
 550:	000f0913          	mv	s2,t5
 554:	000e8993          	mv	s3,t4
 558:	000e0a13          	mv	s4,t3
 55c:	00813a83          	ld	s5,8(sp)
 560:	0127757b          	0x127757b
 564:	00000697          	auipc	a3,0x0
 568:	2ac68693          	addi	a3,a3,684 # 810 <_dtb+0x10>
	for (; (c = *s) != '\0'; s++)
 56c:	04800713          	li	a4,72
	while ((int32_t)(*tx) < 0);
 570:	00032783          	lw	a5,0(t1) # 54000000 <_dtb+0x53fff800>
 574:	fe07cee3          	bltz	a5,570 <main+0x110>
	*tx = c;
 578:	0007071b          	sext.w	a4,a4
 57c:	00e32023          	sw	a4,0(t1)
	for (; (c = *s) != '\0'; s++)
 580:	0016c703          	lbu	a4,1(a3)
 584:	00168693          	addi	a3,a3,1
 588:	fe0714e3          	bnez	a4,570 <main+0x110>
 58c:	f91ff06f          	j	51c <main+0xbc>
